; Function Attrs: mustprogress uwtable
define dso_local noundef i32 @_ZN8cmVSLink4LinkEv(ptr noundef nonnull align 8 dereferenceable(280) %0) local_unnamed_addr #3 align 2 {
  %2 = getelementptr inbounds i8, ptr %0, i64 5
  %3 = load i8, ptr %2, align 1
  %4 = and i8 %3, 1
  %.not = icmp eq i8 %4, 0
  br i1 %.not, label %23, label %5

5:                                                ; preds = %1
  %6 = getelementptr inbounds i8, ptr %0, i64 6
  %7 = load i8, ptr %6, align 2
  %8 = and i8 %7, 1
  %.not1 = icmp eq i8 %8, 0
  br i1 %.not1, label %9, label %15

9:                                                ; preds = %5
  %10 = getelementptr inbounds i8, ptr %0, i64 32
  %11 = load ptr, ptr %10, align 8
  %12 = getelementptr inbounds i8, ptr %0, i64 40
  %13 = load ptr, ptr %12, align 8
  %14 = icmp eq ptr %11, %13
  br i1 %14, label %.thread, label %15

15:                                               ; preds = %9, %5
  %16 = getelementptr inbounds i8, ptr %0, i64 4
  %17 = load i8, ptr %16, align 4
  %18 = and i8 %17, 1
  %.not4 = icmp eq i8 %18, 0
  br i1 %.not4, label %21, label %19

19:                                               ; preds = %15
  %20 = tail call noundef nonnull align 8 dereferenceable(8) ptr @_ZStlsISt11char_traitsIcEERSt13basic_ostreamIcT_ES5_PKc(ptr noundef nonnull align 8 dereferenceable(8) @_ZSt4cout, ptr noundef nonnull @.str.216)
  br label %21

21:                                               ; preds = %19, %15
  %22 = tail call noundef i32 @_ZN8cmVSLink15LinkIncrementalEv(ptr noundef nonnull align 8 dereferenceable(280) %0)
  br label %33

23:                                               ; preds = %1
  %24 = getelementptr inbounds i8, ptr %0, i64 4
  %25 = load i8, ptr %24, align 4
  %26 = and i8 %25, 1
  %.not2 = icmp eq i8 %26, 0
  br i1 %.not2, label %31, label %.sink.split

.thread:                                          ; preds = %9
  %27 = getelementptr inbounds i8, ptr %0, i64 4
  %28 = load i8, ptr %27, align 4
  %29 = and i8 %28, 1
  %.not25 = icmp eq i8 %29, 0
  br i1 %.not25, label %31, label %.sink.split

.sink.split:                                      ; preds = %.thread, %23
  %.str.217.sink = phi ptr [ @.str.217, %23 ], [ @.str.218, %.thread ]
  %30 = tail call noundef nonnull align 8 dereferenceable(8) ptr @_ZStlsISt11char_traitsIcEERSt13basic_ostreamIcT_ES5_PKc(ptr noundef nonnull align 8 dereferenceable(8) @_ZSt4cout, ptr noundef nonnull %.str.217.sink)
  br label %31

31:                                               ; preds = %.sink.split, %.thread, %23
  %32 = tail call noundef i32 @_ZN8cmVSLink18LinkNonIncrementalEv(ptr noundef nonnull align 8 dereferenceable(280) %0), !range !161
  br label %33

33:                                               ; preds = %31, %21
  %.0 = phi i32 [ %22, %21 ], [ %32, %31 ]
  ret i32 %.0
}